; Function Attrs: nounwind uwtable
define internal fastcc ptr @_init_l_Std_Range_forIn_x27_loop___at_Lean_Elab_Tactic_BVDecide_Frontend_Normalize_addStructureSimpLemmas___spec__1___closed__16() unnamed_addr #0 {
  %1 = load ptr, ptr @l_Std_Range_forIn_x27_loop___at_Lean_Elab_Tactic_BVDecide_Frontend_Normalize_addStructureSimpLemmas___spec__1___closed__3, align 8, !tbaa !4
  %2 = load ptr, ptr @l_Std_Range_forIn_x27_loop___at_Lean_Elab_Tactic_BVDecide_Frontend_Normalize_addStructureSimpLemmas___spec__1___closed__4, align 8, !tbaa !4
  %3 = load ptr, ptr @l_Std_Range_forIn_x27_loop___at_Lean_Elab_Tactic_BVDecide_Frontend_Normalize_addStructureSimpLemmas___spec__1___closed__5, align 8, !tbaa !4
  %4 = load ptr, ptr @l_Std_Range_forIn_x27_loop___at_Lean_Elab_Tactic_BVDecide_Frontend_Normalize_addStructureSimpLemmas___spec__1___closed__6, align 8, !tbaa !4
  %5 = load ptr, ptr @l_Std_Range_forIn_x27_loop___at_Lean_Elab_Tactic_BVDecide_Frontend_Normalize_addStructureSimpLemmas___spec__1___closed__7, align 8, !tbaa !4
  %6 = load ptr, ptr @l_Std_Range_forIn_x27_loop___at_Lean_Elab_Tactic_BVDecide_Frontend_Normalize_addStructureSimpLemmas___spec__1___closed__8, align 8, !tbaa !4
  %7 = load ptr, ptr @l_Std_Range_forIn_x27_loop___at_Lean_Elab_Tactic_BVDecide_Frontend_Normalize_addStructureSimpLemmas___spec__1___closed__15, align 8, !tbaa !4
  %8 = tail call ptr @l_Lean_Name_mkStr7(ptr noundef %1, ptr noundef %2, ptr noundef %3, ptr noundef %4, ptr noundef %5, ptr noundef %6, ptr noundef %7) #4
  ret ptr %8
}